target datalayout = "e-m:e-p270:32:32-p271:32:32-p272:64:64-i64:64-i128:128-f80:128-n8:16:32:64-S128"
target triple = "x86_64-unknown-linux-gnu"

%"class.std::__cxx11::basic_string" = type { %"struct.std::__cxx11::basic_string<char>::_Alloc_hider", i64, %union.anon }
%"struct.std::__cxx11::basic_string<char>::_Alloc_hider" = type { ptr }
%union.anon = type { i64, [8 x i8] }
%"struct.openvdb::v11_0::VersionId" = type { i32, i32 }
%"class.openvdb::v11_0::io::Archive" = type <{ ptr, i32, %"struct.openvdb::v11_0::VersionId", [4 x i8], %"class.std::__cxx11::basic_string", i8, i8, [2 x i8], i32, i8, [7 x i8] }>
%class.anon.33 = type { i8 }
%"class.std::random_device" = type { %union.anon.35 }
%union.anon.35 = type { %"class.std::mersenne_twister_engine" }
%"class.std::mersenne_twister_engine" = type { [624 x i64], i64 }

@_ZTISt9exception = external constant ptr

; Function Attrs: mustprogress nounwind uwtable
define linkonce_odr void @_ZSt4swapIcENSt9enable_ifIXsr6__and_ISt6__not_ISt15__is_tuple_likeIT_EESt21is_move_constructibleIS3_ESt18is_move_assignableIS3_EEE5valueEvE4typeERS3_SC_(ptr noundef nonnull align 1 dereferenceable(1) %__a, ptr noundef nonnull align 1 dereferenceable(1) %__b) #5 comdat {
entry:
  %__a.addr = alloca ptr, align 8
  %__b.addr = alloca ptr, align 8
  %__tmp = alloca i8, align 1
  store ptr %__a, ptr %__a.addr, align 8
  store ptr %__b, ptr %__b.addr, align 8
  %0 = load ptr, ptr %__a.addr, align 8
  %1 = load i8, ptr %0, align 1
  store i8 %1, ptr %__tmp, align 1
  %2 = load ptr, ptr %__b.addr, align 8
  %3 = load i8, ptr %2, align 1
  %4 = load ptr, ptr %__a.addr, align 8
  store i8 %3, ptr %4, align 1
  %5 = load i8, ptr %__tmp, align 1
  %6 = load ptr, ptr %__b.addr, align 8
  store i8 %5, ptr %6, align 1
  ret void
}

; Function Attrs: mustprogress nounwind uwtable
define linkonce_odr void @_ZNSt13random_deviceD2Ev(ptr noundef nonnull align 8 dereferenceable(5000) %this) unnamed_addr #5 comdat align 2 personality ptr @__gxx_personality_v0 {
entry:
  %this.addr = alloca ptr, align 8
  store ptr %this, ptr %this.addr, align 8
  %this1 = load ptr, ptr %this.addr, align 8
  invoke void @_ZNSt13random_device7_M_finiEv(ptr noundef nonnull align 8 dereferenceable(5000) %this1)
          to label %invoke.cont unwind label %terminate.lpad

invoke.cont:                                      ; preds = %entry
  ret void

terminate.lpad:                                   ; preds = %entry
  %0 = landingpad { ptr, i32 }
          catch ptr null
  %1 = extractvalue { ptr, i32 } %0, 0
  call void @__clang_call_terminate(ptr %1) #25
  unreachable
}

; Function Attrs: mustprogress nounwind uwtable
define internal noundef signext i8 @"_ZZNK7openvdb5v11_02io7Archive11writeHeaderERSobENK3$_0clEj"(ptr noundef nonnull align 1 dereferenceable(1) %this, i32 noundef %c) #5 align 2 {
entry:
  %retval = alloca i8, align 1
  %this.addr = alloca ptr, align 8
  %c.addr = alloca i32, align 4
  store ptr %this, ptr %this.addr, align 8
  store i32 %c, ptr %c.addr, align 4
  %0 = load i32, ptr %c.addr, align 4
  %and = and i32 %0, 15
  store i32 %and, ptr %c.addr, align 4
  %1 = load i32, ptr %c.addr, align 4
  %cmp = icmp ult i32 %1, 10
  br i1 %cmp, label %if.then, label %if.end

if.then:                                          ; preds = %entry
  %2 = load i32, ptr %c.addr, align 4
  %add = add i32 48, %2
  %conv = trunc i32 %add to i8
  store i8 %conv, ptr %retval, align 1
  br label %return

if.end:                                           ; preds = %entry
  %3 = load i32, ptr %c.addr, align 4
  %sub = sub i32 %3, 10
  %add2 = add i32 %sub, 65
  %conv3 = trunc i32 %add2 to i8
  store i8 %conv3, ptr %retval, align 1
  br label %return

return:                                           ; preds = %if.end, %if.then
  %4 = load i8, ptr %retval, align 1
  ret i8 %4
}

; Function Attrs: mustprogress uwtable
define linkonce_odr noundef i32 @_ZNSt13random_deviceclEv(ptr noundef nonnull align 8 dereferenceable(5000) %this) #4 comdat align 2 {
entry:
  %this.addr = alloca ptr, align 8
  store ptr %this, ptr %this.addr, align 8
  %this1 = load ptr, ptr %this.addr, align 8
  %call = call noundef i32 @_ZNSt13random_device9_M_getvalEv(ptr noundef nonnull align 8 dereferenceable(5000) %this1)
  ret i32 %call
}

; Function Attrs: mustprogress uwtable
define void @_ZNK7openvdb5v11_02io7Archive11writeHeaderERSob(ptr noundef nonnull align 8 dereferenceable(65) %this, ptr noundef nonnull align 8 dereferenceable(8) %os, i1 noundef zeroext %seekable) #4 align 2 personality ptr @__gxx_personality_v0 {
entry:
  %this.addr = alloca ptr, align 8
  %os.addr = alloca ptr, align 8
  %seekable.addr = alloca i8, align 1
  %magic = alloca i64, align 8
  %version = alloca i32, align 4
  %hasGridOffsets = alloca i8, align 1
  %uuidStr = alloca [37 x i8], align 16
  %to_hex = alloca %class.anon.33, align 1
  %seed = alloca %"class.std::random_device", align 8
  %exn.slot = alloca ptr, align 8
  %ehselector.slot = alloca i32, align 4
  %i = alloca i32, align 4
  %v = alloca i32, align 4
  %j = alloca i32, align 4
  %0 = alloca ptr, align 8
  %i18 = alloca i32, align 4
  %i38 = alloca i32, align 4
  store ptr %this, ptr %this.addr, align 8
  store ptr %os, ptr %os.addr, align 8
  %frombool = zext i1 %seekable to i8
  store i8 %frombool, ptr %seekable.addr, align 1
  %this1 = load ptr, ptr %this.addr, align 8
  store i64 1447313952, ptr %magic, align 8
  %1 = load ptr, ptr %os.addr, align 8
  %call = call noundef nonnull align 8 dereferenceable(8) ptr @_ZNSo5writeEPKcl(ptr noundef nonnull align 8 dereferenceable(8) %1, ptr noundef %magic, i64 noundef 8)
  store i32 224, ptr %version, align 4
  %2 = load ptr, ptr %os.addr, align 8
  %call2 = call noundef nonnull align 8 dereferenceable(8) ptr @_ZNSo5writeEPKcl(ptr noundef nonnull align 8 dereferenceable(8) %2, ptr noundef %version, i64 noundef 4)
  store i32 11, ptr %version, align 4
  %3 = load ptr, ptr %os.addr, align 8
  %call3 = call noundef nonnull align 8 dereferenceable(8) ptr @_ZNSo5writeEPKcl(ptr noundef nonnull align 8 dereferenceable(8) %3, ptr noundef %version, i64 noundef 4)
  store i32 0, ptr %version, align 4
  %4 = load ptr, ptr %os.addr, align 8
  %call4 = call noundef nonnull align 8 dereferenceable(8) ptr @_ZNSo5writeEPKcl(ptr noundef nonnull align 8 dereferenceable(8) %4, ptr noundef %version, i64 noundef 4)
  %5 = load i8, ptr %seekable.addr, align 1
  %tobool = trunc i8 %5 to i1
  %conv = zext i1 %tobool to i8
  store i8 %conv, ptr %hasGridOffsets, align 1
  %6 = load ptr, ptr %os.addr, align 8
  %call5 = call noundef nonnull align 8 dereferenceable(8) ptr @_ZNSo5writeEPKcl(ptr noundef nonnull align 8 dereferenceable(8) %6, ptr noundef %hasGridOffsets, i64 noundef 1)
  invoke void @_ZNSt13random_deviceC2Ev(ptr noundef nonnull align 8 dereferenceable(5000) %seed)
          to label %invoke.cont unwind label %lpad

invoke.cont:                                      ; preds = %entry
  store i32 0, ptr %i, align 4
  br label %for.cond

for.cond:                                         ; preds = %for.inc14, %invoke.cont
  %7 = load i32, ptr %i, align 4
  %cmp = icmp slt i32 %7, 4
  br i1 %cmp, label %for.body, label %for.end16

for.body:                                         ; preds = %for.cond
  %call8 = invoke noundef i32 @_ZNSt13random_deviceclEv(ptr noundef nonnull align 8 dereferenceable(5000) %seed)
          to label %invoke.cont7 unwind label %lpad6

invoke.cont7:                                     ; preds = %for.body
  store i32 %call8, ptr %v, align 4
  store i32 0, ptr %j, align 4
  br label %for.cond9

for.cond9:                                        ; preds = %for.inc, %invoke.cont7
  %8 = load i32, ptr %j, align 4
  %cmp10 = icmp slt i32 %8, 8
  br i1 %cmp10, label %for.body11, label %for.end

for.body11:                                       ; preds = %for.cond9
  %9 = load i32, ptr %v, align 4
  %call13 = invoke noundef signext i8 @"_ZZNK7openvdb5v11_02io7Archive11writeHeaderERSobENK3$_0clEj"(ptr noundef nonnull align 1 dereferenceable(1) %to_hex, i32 noundef %9)
          to label %invoke.cont12 unwind label %lpad6

invoke.cont12:                                    ; preds = %for.body11
  %10 = load i32, ptr %i, align 4
  %mul = mul nsw i32 %10, 8
  %11 = load i32, ptr %j, align 4
  %add = add nsw i32 %mul, %11
  %idxprom = sext i32 %add to i64
  %arrayidx = getelementptr inbounds [37 x i8], ptr %uuidStr, i64 0, i64 %idxprom
  store i8 %call13, ptr %arrayidx, align 1
  %12 = load i32, ptr %v, align 4
  %shr = lshr i32 %12, 4
  store i32 %shr, ptr %v, align 4
  br label %for.inc

for.inc:                                          ; preds = %invoke.cont12
  %13 = load i32, ptr %j, align 4
  %inc = add nsw i32 %13, 1
  store i32 %inc, ptr %j, align 4
  br label %for.cond9, !llvm.loop !8

lpad:                                             ; preds = %entry
  %14 = landingpad { ptr, i32 }
          catch ptr @_ZTISt9exception
  %15 = extractvalue { ptr, i32 } %14, 0
  store ptr %15, ptr %exn.slot, align 8
  %16 = extractvalue { ptr, i32 } %14, 1
  store i32 %16, ptr %ehselector.slot, align 4
  br label %catch.dispatch

lpad6:                                            ; preds = %for.body11, %for.body
  %17 = landingpad { ptr, i32 }
          cleanup
          catch ptr @_ZTISt9exception
  %18 = extractvalue { ptr, i32 } %17, 0
  store ptr %18, ptr %exn.slot, align 8
  %19 = extractvalue { ptr, i32 } %17, 1
  store i32 %19, ptr %ehselector.slot, align 4
  call void @_ZNSt13random_deviceD2Ev(ptr noundef nonnull align 8 dereferenceable(5000) %seed) #3
  br label %catch.dispatch

catch.dispatch:                                   ; preds = %lpad6, %lpad
  %sel = load i32, ptr %ehselector.slot, align 4
  %20 = call i32 @llvm.eh.typeid.for(ptr @_ZTISt9exception) #3
  %matches = icmp eq i32 %sel, %20
  br i1 %matches, label %catch, label %eh.resume

catch:                                            ; preds = %catch.dispatch
  %exn = load ptr, ptr %exn.slot, align 8
  %21 = call ptr @__cxa_begin_catch(ptr %exn) #3
  store ptr %21, ptr %0, align 8
  %arrayidx17 = getelementptr inbounds [37 x i8], ptr %uuidStr, i64 0, i64 0
  store i8 0, ptr %arrayidx17, align 16
  call void @__cxa_end_catch()
  br label %try.cont

try.cont:                                         ; preds = %for.end16, %catch
  store i32 0, ptr %i18, align 4
  br label %for.cond19

for.cond19:                                       ; preds = %for.inc25, %try.cont
  %22 = load i32, ptr %i18, align 4
  %cmp20 = icmp slt i32 %22, 4
  br i1 %cmp20, label %for.body21, label %for.end27

for.body21:                                       ; preds = %for.cond19
  %23 = load i32, ptr %i18, align 4
  %add22 = add nsw i32 32, %23
  %idxprom23 = sext i32 %add22 to i64
  %arrayidx24 = getelementptr inbounds [37 x i8], ptr %uuidStr, i64 0, i64 %idxprom23
  store i8 45, ptr %arrayidx24, align 1
  br label %for.inc25

for.inc25:                                        ; preds = %for.body21
  %24 = load i32, ptr %i18, align 4
  %inc26 = add nsw i32 %24, 1
  store i32 %inc26, ptr %i18, align 4
  br label %for.cond19, !llvm.loop !9

for.end:                                          ; preds = %for.cond9
  br label %for.inc14

for.inc14:                                        ; preds = %for.end
  %25 = load i32, ptr %i, align 4
  %inc15 = add nsw i32 %25, 1
  store i32 %inc15, ptr %i, align 4
  br label %for.cond, !llvm.loop !10

for.end16:                                        ; preds = %for.cond
  call void @_ZNSt13random_deviceD2Ev(ptr noundef nonnull align 8 dereferenceable(5000) %seed) #3
  br label %try.cont

for.end27:                                        ; preds = %for.cond19
  %arrayidx28 = getelementptr inbounds [37 x i8], ptr %uuidStr, i64 0, i64 32
  %arrayidx29 = getelementptr inbounds [37 x i8], ptr %uuidStr, i64 0, i64 8
  call void @_ZSt4swapIcENSt9enable_ifIXsr6__and_ISt6__not_ISt15__is_tuple_likeIT_EESt21is_move_constructibleIS3_ESt18is_move_assignableIS3_EEE5valueEvE4typeERS3_SC_(ptr noundef nonnull align 1 dereferenceable(1) %arrayidx28, ptr noundef nonnull align 1 dereferenceable(1) %arrayidx29) #3
  %arrayidx30 = getelementptr inbounds [37 x i8], ptr %uuidStr, i64 0, i64 33
  %arrayidx31 = getelementptr inbounds [37 x i8], ptr %uuidStr, i64 0, i64 13
  call void @_ZSt4swapIcENSt9enable_ifIXsr6__and_ISt6__not_ISt15__is_tuple_likeIT_EESt21is_move_constructibleIS3_ESt18is_move_assignableIS3_EEE5valueEvE4typeERS3_SC_(ptr noundef nonnull align 1 dereferenceable(1) %arrayidx30, ptr noundef nonnull align 1 dereferenceable(1) %arrayidx31) #3
  %arrayidx32 = getelementptr inbounds [37 x i8], ptr %uuidStr, i64 0, i64 34
  %arrayidx33 = getelementptr inbounds [37 x i8], ptr %uuidStr, i64 0, i64 18
  call void @_ZSt4swapIcENSt9enable_ifIXsr6__and_ISt6__not_ISt15__is_tuple_likeIT_EESt21is_move_constructibleIS3_ESt18is_move_assignableIS3_EEE5valueEvE4typeERS3_SC_(ptr noundef nonnull align 1 dereferenceable(1) %arrayidx32, ptr noundef nonnull align 1 dereferenceable(1) %arrayidx33) #3
  %arrayidx34 = getelementptr inbounds [37 x i8], ptr %uuidStr, i64 0, i64 35
  %arrayidx35 = getelementptr inbounds [37 x i8], ptr %uuidStr, i64 0, i64 23
  call void @_ZSt4swapIcENSt9enable_ifIXsr6__and_ISt6__not_ISt15__is_tuple_likeIT_EESt21is_move_constructibleIS3_ESt18is_move_assignableIS3_EEE5valueEvE4typeERS3_SC_(ptr noundef nonnull align 1 dereferenceable(1) %arrayidx34, ptr noundef nonnull align 1 dereferenceable(1) %arrayidx35) #3
  %arrayidx36 = getelementptr inbounds [37 x i8], ptr %uuidStr, i64 0, i64 36
  store i8 0, ptr %arrayidx36, align 4
  %arraydecay = getelementptr inbounds [37 x i8], ptr %uuidStr, i64 0, i64 0
  %mUuid = getelementptr inbounds %"class.openvdb::v11_0::io::Archive", ptr %this1, i32 0, i32 4
  %call37 = call noundef nonnull align 8 dereferenceable(32) ptr @_ZNSt7__cxx1112basic_stringIcSt11char_traitsIcESaIcEEaSEPKc(ptr noundef nonnull align 8 dereferenceable(32) %mUuid, ptr noundef %arraydecay)
  store i32 0, ptr %i38, align 4
  br label %for.cond39

for.cond39:                                       ; preds = %for.inc45, %for.end27
  %26 = load i32, ptr %i38, align 4
  %cmp40 = icmp slt i32 %26, 36
  br i1 %cmp40, label %for.body41, label %for.end47

for.body41:                                       ; preds = %for.cond39
  %27 = load ptr, ptr %os.addr, align 8
  %28 = load i32, ptr %i38, align 4
  %idxprom42 = sext i32 %28 to i64
  %arrayidx43 = getelementptr inbounds [37 x i8], ptr %uuidStr, i64 0, i64 %idxprom42
  %29 = load i8, ptr %arrayidx43, align 1
  %call44 = call noundef nonnull align 8 dereferenceable(8) ptr @_ZStlsISt11char_traitsIcEERSt13basic_ostreamIcT_ES5_c(ptr noundef nonnull align 8 dereferenceable(8) %27, i8 noundef signext %29)
  br label %for.inc45

for.inc45:                                        ; preds = %for.body41
  %30 = load i32, ptr %i38, align 4
  %inc46 = add nsw i32 %30, 1
  store i32 %inc46, ptr %i38, align 4
  br label %for.cond39, !llvm.loop !11

for.end47:                                        ; preds = %for.cond39
  ret void

eh.resume:                                        ; preds = %catch.dispatch
  %exn48 = load ptr, ptr %exn.slot, align 8
  %sel49 = load i32, ptr %ehselector.slot, align 4
  %lpad.val = insertvalue { ptr, i32 } poison, ptr %exn48, 0
  %lpad.val50 = insertvalue { ptr, i32 } %lpad.val, i32 %sel49, 1
  resume { ptr, i32 } %lpad.val50
}