; Function Attrs: mustprogress uwtable
define void @_ZNK7openvdb5v11_02io7Archive11writeHeaderERSob(ptr noundef nonnull align 8 dereferenceable(65) %this, ptr noundef nonnull align 8 dereferenceable(8) %os, i1 noundef zeroext %seekable) local_unnamed_addr #6 align 2 personality ptr @__gxx_personality_v0 {
entry:
  %magic = alloca i64, align 8
  %version = alloca i32, align 4
  %hasGridOffsets = alloca i8, align 1
  %uuidStr = alloca [37 x i8], align 16
  %seed = alloca %"class.std::random_device", align 8
  %frombool = zext i1 %seekable to i8
  store i64 1447313952, ptr %magic, align 8
  %call = call noundef nonnull align 8 dereferenceable(8) ptr @_ZNSo5writeEPKcl(ptr noundef nonnull align 8 dereferenceable(8) %os, ptr noundef nonnull %magic, i64 noundef 8)
  store i32 224, ptr %version, align 4
  %call2 = call noundef nonnull align 8 dereferenceable(8) ptr @_ZNSo5writeEPKcl(ptr noundef nonnull align 8 dereferenceable(8) %os, ptr noundef nonnull %version, i64 noundef 4)
  store i32 11, ptr %version, align 4
  %call3 = call noundef nonnull align 8 dereferenceable(8) ptr @_ZNSo5writeEPKcl(ptr noundef nonnull align 8 dereferenceable(8) %os, ptr noundef nonnull %version, i64 noundef 4)
  store i32 0, ptr %version, align 4
  %call4 = call noundef nonnull align 8 dereferenceable(8) ptr @_ZNSo5writeEPKcl(ptr noundef nonnull align 8 dereferenceable(8) %os, ptr noundef nonnull %version, i64 noundef 4)
  store i8 %frombool, ptr %hasGridOffsets, align 1
  %call5 = call noundef nonnull align 8 dereferenceable(8) ptr @_ZNSo5writeEPKcl(ptr noundef nonnull align 8 dereferenceable(8) %os, ptr noundef nonnull %hasGridOffsets, i64 noundef 1)
  invoke void @_ZNSt13random_deviceC2Ev(ptr noundef nonnull align 8 dereferenceable(5000) %seed)
          to label %for.body unwind label %lpad

for.body:                                         ; preds = %entry, %for.inc14
  %indvars.iv27 = phi i64 [ %indvars.iv.next28, %for.inc14 ], [ 0, %entry ]
  %call.i17 = invoke noundef i32 @_ZNSt13random_device9_M_getvalEv(ptr noundef nonnull align 8 dereferenceable(5000) %seed)
          to label %for.cond9.preheader unwind label %lpad6

for.cond9.preheader:                              ; preds = %for.body
  %0 = shl nuw nsw i64 %indvars.iv27, 3
  br label %for.body11

for.body11:                                       ; preds = %for.cond9.preheader, %for.body11
  %indvars.iv = phi i64 [ 0, %for.cond9.preheader ], [ %indvars.iv.next, %for.body11 ]
  %v.020 = phi i32 [ %call.i17, %for.cond9.preheader ], [ %shr, %for.body11 ]
  %and.i = and i32 %v.020, 15
  %cmp.i = icmp ult i32 %and.i, 10
  %1 = trunc i32 %and.i to i8
  %conv.i = or disjoint i8 %1, 48
  %conv3.i = add nuw nsw i8 %1, 55
  %retval.0.i = select i1 %cmp.i, i8 %conv.i, i8 %conv3.i
  %2 = add nuw nsw i64 %indvars.iv, %0
  %arrayidx = getelementptr inbounds [37 x i8], ptr %uuidStr, i64 0, i64 %2
  store i8 %retval.0.i, ptr %arrayidx, align 1
  %shr = lshr i32 %v.020, 4
  %indvars.iv.next = add nuw nsw i64 %indvars.iv, 1
  %exitcond.not = icmp eq i64 %indvars.iv.next, 8
  br i1 %exitcond.not, label %for.inc14, label %for.body11, !llvm.loop !25

lpad:                                             ; preds = %entry
  %3 = landingpad { ptr, i32 }
          catch ptr @_ZTISt9exception
  br label %catch.dispatch

lpad6:                                            ; preds = %for.body
  %4 = landingpad { ptr, i32 }
          cleanup
          catch ptr @_ZTISt9exception
  invoke void @_ZNSt13random_device7_M_finiEv(ptr noundef nonnull align 8 dereferenceable(5000) %seed)
          to label %catch.dispatch unwind label %terminate.lpad.i

terminate.lpad.i:                                 ; preds = %lpad6
  %5 = landingpad { ptr, i32 }
          catch ptr null
  %6 = extractvalue { ptr, i32 } %5, 0
  call void @__clang_call_terminate(ptr %6) #37
  unreachable

catch.dispatch:                                   ; preds = %lpad6, %lpad
  %.pn = phi { ptr, i32 } [ %3, %lpad ], [ %4, %lpad6 ]
  %ehselector.slot.0 = extractvalue { ptr, i32 } %.pn, 1
  %7 = call i32 @llvm.eh.typeid.for(ptr nonnull @_ZTISt9exception) #25
  %matches = icmp eq i32 %ehselector.slot.0, %7
  br i1 %matches, label %catch, label %eh.resume

catch:                                            ; preds = %catch.dispatch
  %exn.slot.0 = extractvalue { ptr, i32 } %.pn, 0
  %8 = call ptr @__cxa_begin_catch(ptr %exn.slot.0) #25
  store i8 0, ptr %uuidStr, align 16
  call void @__cxa_end_catch()
  br label %try.cont

try.cont:                                         ; preds = %for.end16, %catch
  %scevgep = getelementptr inbounds i8, ptr %uuidStr, i64 32
  %arrayidx29 = getelementptr inbounds i8, ptr %uuidStr, i64 8
  %9 = load i8, ptr %arrayidx29, align 8
  store i8 %9, ptr %scevgep, align 16
  store i8 45, ptr %arrayidx29, align 8
  %arrayidx30 = getelementptr inbounds i8, ptr %uuidStr, i64 33
  %arrayidx31 = getelementptr inbounds i8, ptr %uuidStr, i64 13
  %10 = load i8, ptr %arrayidx31, align 1
  store i8 %10, ptr %arrayidx30, align 1
  store i8 45, ptr %arrayidx31, align 1
  %arrayidx32 = getelementptr inbounds i8, ptr %uuidStr, i64 34
  %arrayidx33 = getelementptr inbounds i8, ptr %uuidStr, i64 18
  %11 = load i8, ptr %arrayidx33, align 2
  store i8 %11, ptr %arrayidx32, align 2
  store i8 45, ptr %arrayidx33, align 2
  %arrayidx34 = getelementptr inbounds i8, ptr %uuidStr, i64 35
  %arrayidx35 = getelementptr inbounds i8, ptr %uuidStr, i64 23
  %12 = load i8, ptr %arrayidx35, align 1
  store i8 %12, ptr %arrayidx34, align 1
  store i8 45, ptr %arrayidx35, align 1
  %arrayidx36 = getelementptr inbounds i8, ptr %uuidStr, i64 36
  store i8 0, ptr %arrayidx36, align 4
  %mUuid = getelementptr inbounds i8, ptr %this, i64 24
  %call37 = call noundef nonnull align 8 dereferenceable(32) ptr @_ZNSt7__cxx1112basic_stringIcSt11char_traitsIcESaIcEEaSEPKc(ptr noundef nonnull align 8 dereferenceable(32) %mUuid, ptr noundef nonnull %uuidStr)
  br label %for.body41

for.inc14:                                        ; preds = %for.body11
  %indvars.iv.next28 = add nuw nsw i64 %indvars.iv27, 1
  %exitcond31.not = icmp eq i64 %indvars.iv.next28, 4
  br i1 %exitcond31.not, label %for.end16, label %for.body, !llvm.loop !26

for.end16:                                        ; preds = %for.inc14
  invoke void @_ZNSt13random_device7_M_finiEv(ptr noundef nonnull align 8 dereferenceable(5000) %seed)
          to label %try.cont unwind label %terminate.lpad.i18

terminate.lpad.i18:                               ; preds = %for.end16
  %13 = landingpad { ptr, i32 }
          catch ptr null
  %14 = extractvalue { ptr, i32 } %13, 0
  call void @__clang_call_terminate(ptr %14) #37
  unreachable

for.body41:                                       ; preds = %try.cont, %for.body41
  %indvars.iv36 = phi i64 [ 0, %try.cont ], [ %indvars.iv.next37, %for.body41 ]
  %arrayidx43 = getelementptr inbounds [37 x i8], ptr %uuidStr, i64 0, i64 %indvars.iv36
  %15 = load i8, ptr %arrayidx43, align 1
  %call44 = call noundef nonnull align 8 dereferenceable(8) ptr @_ZStlsISt11char_traitsIcEERSt13basic_ostreamIcT_ES5_c(ptr noundef nonnull align 8 dereferenceable(8) %os, i8 noundef signext %15)
  %indvars.iv.next37 = add nuw nsw i64 %indvars.iv36, 1
  %exitcond39.not = icmp eq i64 %indvars.iv.next37, 36
  br i1 %exitcond39.not, label %for.end47, label %for.body41, !llvm.loop !27

for.end47:                                        ; preds = %for.body41
  ret void

eh.resume:                                        ; preds = %catch.dispatch
  resume { ptr, i32 } %.pn
}